; Function Attrs: mustprogress nounwind uwtable
define internal void @_ZN12_GLOBAL__N_127ModuleDependencyMMCallbacks18moduleMapAddHeaderEN4llvm9StringRefE(ptr nocapture noundef nonnull readonly align 8 dereferenceable(16) %0, ptr %1, i64 %2) unnamed_addr #0 align 2 {
  %4 = alloca %"class.llvm::Twine", align 8
  %5 = getelementptr inbounds nuw i8, ptr %4, i64 32
  store i8 5, ptr %5, align 8
  %6 = getelementptr inbounds nuw i8, ptr %4, i64 33
  store i8 1, ptr %6, align 1
  store ptr %1, ptr %4, align 8
  %7 = getelementptr inbounds nuw i8, ptr %4, i64 8
  store i64 %2, ptr %7, align 8
  %8 = call noundef zeroext i1 @_ZN4llvm3sys4path11is_absoluteERKNS_5TwineENS1_5StyleE(ptr noundef nonnull align 8 dereferenceable(34) %4, i32 noundef 0) #17
  br i1 %8, label %9, label %15

9:                                                ; preds = %3
  %10 = getelementptr inbounds nuw i8, ptr %0, i64 8
  %11 = load ptr, ptr %10, align 8
  %12 = load ptr, ptr %11, align 8
  %13 = getelementptr inbounds i8, ptr %12, i64 72
  %14 = load ptr, ptr %13, align 8
  call void %14(ptr noundef nonnull align 8 dereferenceable(208) %11, ptr %1, i64 %2, ptr null, i64 0) #17
  br label %15

15:                                               ; preds = %9, %3
  ret void
}